target datalayout = "e-m:e-p270:32:32-p271:32:32-p272:64:64-i64:64-i128:128-f80:128-n8:16:32:64-S128"
target triple = "x86_64-pc-linux-gnu"

%struct.expert_field = type { i32, i32 }
%struct._packet_info = type { ptr, ptr, i32, i32, %struct.nstime_t, %struct.nstime_t, %struct.nstime_t, i8, ptr, ptr, ptr, ptr, %struct._address, %struct._address, %struct._address, %struct._address, %struct._address, %struct._address, i32, ptr, i8, [3 x i8], %struct.anon, i32, i32, i32, i32, ptr, i8, ptr, ptr, i16, i16, i32, i32, i16, i32, i32, ptr, ptr, ptr, i8, i8, i16, i16, i16, i32, i16, i16, ptr, ptr, ptr, ptr, ptr, i32, i32 }
%struct.nstime_t = type { i64, i32 }
%struct._address = type { i32, i32, ptr, ptr }
%struct.anon = type { i8, [3 x i8] }

@hf_olsr_neighbor = internal global i32 0, align 4
@hf_olsr_neighbor_addr = internal global i32 0, align 4
@hf_olsr_neighbor6_addr = internal global i32 0, align 4
@hf_olsrorg_lq = internal global i32 0, align 4
@hf_olsrorg_nlq = internal global i32 0, align 4
@ett_olsr_message_neigh = internal global i32 0, align 4
@ei_olsr_not_enough_bytes = internal global %struct.expert_field zeroinitializer, align 4
@.str.135 = private unnamed_addr constant [50 x i8] c"Not enough bytes for last Olsr.org LQ-Hello entry\00", align 1
@.str.136 = private unnamed_addr constant [11 x i8] c"%s (%d/%d)\00", align 1

; Function Attrs: null_pointer_is_valid sspstrong uwtable
define internal i32 @handle_olsr_hello_olsrorg(ptr noundef %0, ptr noundef %1, ptr noundef %2, i32 noundef %3, i32 noundef %4) #0 {
  %6 = alloca i32, align 4
  %7 = alloca ptr, align 8
  %8 = alloca ptr, align 8
  %9 = alloca ptr, align 8
  %10 = alloca i32, align 4
  %11 = alloca i32, align 4
  %12 = alloca ptr, align 8
  %13 = alloca ptr, align 8
  %14 = alloca i8, align 1
  %15 = alloca i8, align 1
  %16 = alloca i32, align 4
  store ptr %0, ptr %7, align 8
  store ptr %1, ptr %8, align 8
  store ptr %2, ptr %9, align 8
  store i32 %3, ptr %10, align 4
  store i32 %4, ptr %11, align 4
  br label %17

17:                                               ; preds = %140, %5
  %18 = load i32, ptr %10, align 4
  %19 = load i32, ptr %11, align 4
  %20 = icmp slt i32 %18, %19
  br i1 %20, label %21, label %141

21:                                               ; preds = %17
  call void @llvm.lifetime.start.p0(i64 8, ptr %12) #7
  call void @llvm.lifetime.start.p0(i64 8, ptr %13) #7
  call void @llvm.lifetime.start.p0(i64 1, ptr %14) #7
  call void @llvm.lifetime.start.p0(i64 1, ptr %15) #7
  %22 = load i32, ptr %11, align 4
  %23 = load i32, ptr %10, align 4
  %24 = sub i32 %22, %23
  %25 = load ptr, ptr %8, align 8
  %26 = getelementptr inbounds nuw %struct._packet_info, ptr %25, i32 0, i32 16
  %27 = getelementptr inbounds nuw %struct._address, ptr %26, i32 0, i32 1
  %28 = load i32, ptr %27, align 4
  %29 = add i32 %28, 4
  %30 = icmp slt i32 %24, %29
  br i1 %30, label %31, label %41

31:                                               ; preds = %21
  %32 = load ptr, ptr %9, align 8
  %33 = load ptr, ptr %8, align 8
  %34 = load ptr, ptr %7, align 8
  %35 = load i32, ptr %10, align 4
  %36 = load i32, ptr %11, align 4
  %37 = load i32, ptr %10, align 4
  %38 = sub i32 %36, %37
  %39 = call ptr (ptr, ptr, ptr, ptr, i32, i32, ptr, ...) @proto_tree_add_expert_format(ptr noundef %32, ptr noundef %33, ptr noundef @ei_olsr_not_enough_bytes, ptr noundef %34, i32 noundef %35, i32 noundef %38, ptr noundef @.str.135)
  %40 = load i32, ptr %11, align 4
  store i32 %40, ptr %6, align 4
  store i32 1, ptr %16, align 4
  br label %138

41:                                               ; preds = %21
  %42 = load ptr, ptr %8, align 8
  %43 = getelementptr inbounds nuw %struct._packet_info, ptr %42, i32 0, i32 16
  %44 = getelementptr inbounds nuw %struct._address, ptr %43, i32 0, i32 0
  %45 = load i32, ptr %44, align 8
  %46 = icmp eq i32 %45, 2
  br i1 %46, label %47, label %81

47:                                               ; preds = %41
  %48 = load ptr, ptr %7, align 8
  %49 = load i32, ptr %10, align 4
  %50 = add i32 %49, 4
  %51 = call zeroext i8 @tvb_get_uint8(ptr noundef %48, i32 noundef %50)
  store i8 %51, ptr %14, align 1
  %52 = load ptr, ptr %7, align 8
  %53 = load i32, ptr %10, align 4
  %54 = add i32 %53, 5
  %55 = call zeroext i8 @tvb_get_uint8(ptr noundef %52, i32 noundef %54)
  store i8 %55, ptr %15, align 1
  %56 = load ptr, ptr %9, align 8
  %57 = load i32, ptr @hf_olsr_neighbor, align 4
  %58 = load ptr, ptr %7, align 8
  %59 = load i32, ptr %10, align 4
  %60 = load ptr, ptr %8, align 8
  %61 = getelementptr inbounds nuw %struct._packet_info, ptr %60, i32 0, i32 51
  %62 = load ptr, ptr %61, align 8
  %63 = load ptr, ptr %7, align 8
  %64 = load i32, ptr %10, align 4
  %65 = call ptr @tvb_address_to_str(ptr noundef %62, ptr noundef %63, i32 noundef 2, i32 noundef %64)
  %66 = load i8, ptr %14, align 1
  %67 = zext i8 %66 to i32
  %68 = load i8, ptr %15, align 1
  %69 = zext i8 %68 to i32
  %70 = call ptr (ptr, i32, ptr, i32, i32, ptr, ptr, ...) @proto_tree_add_bytes_format_value(ptr noundef %56, i32 noundef %57, ptr noundef %58, i32 noundef %59, i32 noundef 8, ptr noundef null, ptr noundef @.str.136, ptr noundef %65, i32 noundef %67, i32 noundef %69)
  store ptr %70, ptr %12, align 8
  %71 = load ptr, ptr %12, align 8
  %72 = load i32, ptr @ett_olsr_message_neigh, align 4
  %73 = call ptr @proto_item_add_subtree(ptr noundef %71, i32 noundef %72)
  store ptr %73, ptr %13, align 8
  %74 = load ptr, ptr %13, align 8
  %75 = load i32, ptr @hf_olsr_neighbor_addr, align 4
  %76 = load ptr, ptr %7, align 8
  %77 = load i32, ptr %10, align 4
  %78 = call ptr @proto_tree_add_item(ptr noundef %74, i32 noundef %75, ptr noundef %76, i32 noundef %77, i32 noundef 4, i32 noundef 0)
  %79 = load i32, ptr %10, align 4
  %80 = add i32 %79, 4
  store i32 %80, ptr %10, align 4
  br label %123

81:                                               ; preds = %41
  %82 = load ptr, ptr %8, align 8
  %83 = getelementptr inbounds nuw %struct._packet_info, ptr %82, i32 0, i32 16
  %84 = getelementptr inbounds nuw %struct._address, ptr %83, i32 0, i32 0
  %85 = load i32, ptr %84, align 8
  %86 = icmp eq i32 %85, 3
  br i1 %86, label %87, label %121

87:                                               ; preds = %81
  %88 = load ptr, ptr %7, align 8
  %89 = load i32, ptr %10, align 4
  %90 = add i32 %89, 16
  %91 = call zeroext i8 @tvb_get_uint8(ptr noundef %88, i32 noundef %90)
  store i8 %91, ptr %14, align 1
  %92 = load ptr, ptr %7, align 8
  %93 = load i32, ptr %10, align 4
  %94 = add i32 %93, 17
  %95 = call zeroext i8 @tvb_get_uint8(ptr noundef %92, i32 noundef %94)
  store i8 %95, ptr %15, align 1
  %96 = load ptr, ptr %9, align 8
  %97 = load i32, ptr @hf_olsr_neighbor, align 4
  %98 = load ptr, ptr %7, align 8
  %99 = load i32, ptr %10, align 4
  %100 = load ptr, ptr %8, align 8
  %101 = getelementptr inbounds nuw %struct._packet_info, ptr %100, i32 0, i32 51
  %102 = load ptr, ptr %101, align 8
  %103 = load ptr, ptr %7, align 8
  %104 = load i32, ptr %10, align 4
  %105 = call ptr @tvb_address_to_str(ptr noundef %102, ptr noundef %103, i32 noundef 3, i32 noundef %104)
  %106 = load i8, ptr %14, align 1
  %107 = zext i8 %106 to i32
  %108 = load i8, ptr %15, align 1
  %109 = zext i8 %108 to i32
  %110 = call ptr (ptr, i32, ptr, i32, i32, ptr, ptr, ...) @proto_tree_add_bytes_format_value(ptr noundef %96, i32 noundef %97, ptr noundef %98, i32 noundef %99, i32 noundef 20, ptr noundef null, ptr noundef @.str.136, ptr noundef %105, i32 noundef %107, i32 noundef %109)
  store ptr %110, ptr %12, align 8
  %111 = load ptr, ptr %12, align 8
  %112 = load i32, ptr @ett_olsr_message_neigh, align 4
  %113 = call ptr @proto_item_add_subtree(ptr noundef %111, i32 noundef %112)
  store ptr %113, ptr %13, align 8
  %114 = load ptr, ptr %13, align 8
  %115 = load i32, ptr @hf_olsr_neighbor6_addr, align 4
  %116 = load ptr, ptr %7, align 8
  %117 = load i32, ptr %10, align 4
  %118 = call ptr @proto_tree_add_item(ptr noundef %114, i32 noundef %115, ptr noundef %116, i32 noundef %117, i32 noundef 16, i32 noundef 0)
  %119 = load i32, ptr %10, align 4
  %120 = add i32 %119, 16
  store i32 %120, ptr %10, align 4
  br label %122

121:                                              ; preds = %81
  store i32 3, ptr %16, align 4
  br label %138

122:                                              ; preds = %87
  br label %123

123:                                              ; preds = %122, %47
  %124 = load ptr, ptr %13, align 8
  %125 = load i32, ptr @hf_olsrorg_lq, align 4
  %126 = load ptr, ptr %7, align 8
  %127 = load i32, ptr %10, align 4
  %128 = add i32 %127, 1
  store i32 %128, ptr %10, align 4
  %129 = call ptr @proto_tree_add_item(ptr noundef %124, i32 noundef %125, ptr noundef %126, i32 noundef %127, i32 noundef 1, i32 noundef 0)
  %130 = load ptr, ptr %13, align 8
  %131 = load i32, ptr @hf_olsrorg_nlq, align 4
  %132 = load ptr, ptr %7, align 8
  %133 = load i32, ptr %10, align 4
  %134 = add i32 %133, 1
  store i32 %134, ptr %10, align 4
  %135 = call ptr @proto_tree_add_item(ptr noundef %130, i32 noundef %131, ptr noundef %132, i32 noundef %133, i32 noundef 1, i32 noundef 0)
  %136 = load i32, ptr %10, align 4
  %137 = add i32 %136, 2
  store i32 %137, ptr %10, align 4
  store i32 0, ptr %16, align 4
  br label %138

138:                                              ; preds = %123, %121, %31
  call void @llvm.lifetime.end.p0(i64 1, ptr %15) #7
  call void @llvm.lifetime.end.p0(i64 1, ptr %14) #7
  call void @llvm.lifetime.end.p0(i64 8, ptr %13) #7
  call void @llvm.lifetime.end.p0(i64 8, ptr %12) #7
  %139 = load i32, ptr %16, align 4
  switch i32 %139, label %145 [
    i32 0, label %140
    i32 1, label %143
    i32 3, label %141
  ]

140:                                              ; preds = %138
  br label %17, !llvm.loop !16

141:                                              ; preds = %138, %17
  %142 = load i32, ptr %11, align 4
  store i32 %142, ptr %6, align 4
  br label %143

143:                                              ; preds = %141, %138
  %144 = load i32, ptr %6, align 4
  ret i32 %144

145:                                              ; preds = %138
  unreachable
}