; Function Attrs: null_pointer_is_valid sspstrong uwtable
define internal noundef i32 @handle_olsr_hello_olsrorg(ptr noundef %0, ptr noundef %1, ptr noundef %2, i32 noundef %3, i32 noundef returned %4) #0 {
  %6 = icmp slt i32 %3, %4
  br i1 %6, label %.lr.ph, label %.thread68

.lr.ph:                                           ; preds = %5
  %7 = getelementptr inbounds nuw i8, ptr %1, i64 212
  %8 = getelementptr inbounds nuw i8, ptr %1, i64 208
  %9 = getelementptr inbounds nuw i8, ptr %1, i64 408
  br label %10

10:                                               ; preds = %.lr.ph, %19
  %.05973 = phi i32 [ %3, %.lr.ph ], [ %39, %19 ]
  %11 = sub i32 %4, %.05973
  %12 = load i32, ptr %7, align 4
  %13 = add i32 %12, 4
  %14 = icmp slt i32 %11, %13
  br i1 %14, label %.thread, label %16

.thread:                                          ; preds = %10
  %15 = tail call ptr (ptr, ptr, ptr, ptr, i32, i32, ptr, ...) @proto_tree_add_expert_format(ptr noundef %2, ptr noundef %1, ptr noundef nonnull @ei_olsr_not_enough_bytes, ptr noundef %0, i32 noundef %.05973, i32 noundef %11, ptr noundef nonnull @.str.135)
  br label %.thread68

16:                                               ; preds = %10
  %17 = load i32, ptr %8, align 8
  switch i32 %17, label %.thread68 [
    i32 2, label %19
    i32 3, label %18
  ]

18:                                               ; preds = %16
  br label %19

19:                                               ; preds = %16, %18
  %.sink92 = phi i32 [ 16, %18 ], [ 4, %16 ]
  %.sink91 = phi i32 [ 17, %18 ], [ 5, %16 ]
  %.sink83 = phi i32 [ 20, %18 ], [ 8, %16 ]
  %hf_olsr_neighbor_addr.sink = phi ptr [ @hf_olsr_neighbor6_addr, %18 ], [ @hf_olsr_neighbor_addr, %16 ]
  %20 = add i32 %.05973, %.sink92
  %21 = tail call zeroext i8 @tvb_get_uint8(ptr noundef %0, i32 noundef %20)
  %22 = add i32 %.05973, %.sink91
  %23 = tail call zeroext i8 @tvb_get_uint8(ptr noundef %0, i32 noundef %22)
  %24 = load i32, ptr @hf_olsr_neighbor, align 4
  %25 = load ptr, ptr %9, align 8
  %26 = tail call ptr @tvb_address_to_str(ptr noundef %25, ptr noundef %0, i32 noundef %17, i32 noundef %.05973)
  %27 = zext i8 %21 to i32
  %28 = zext i8 %23 to i32
  %29 = tail call ptr (ptr, i32, ptr, i32, i32, ptr, ptr, ...) @proto_tree_add_bytes_format_value(ptr noundef %2, i32 noundef %24, ptr noundef %0, i32 noundef %.05973, i32 noundef %.sink83, ptr noundef null, ptr noundef nonnull @.str.136, ptr noundef %26, i32 noundef %27, i32 noundef %28)
  %30 = load i32, ptr @ett_olsr_message_neigh, align 4
  %31 = tail call ptr @proto_item_add_subtree(ptr noundef %29, i32 noundef %30)
  %32 = load i32, ptr %hf_olsr_neighbor_addr.sink, align 4
  %33 = tail call ptr @proto_tree_add_item(ptr noundef %31, i32 noundef %32, ptr noundef %0, i32 noundef %.05973, i32 noundef %.sink92, i32 noundef 0)
  %34 = load i32, ptr @hf_olsrorg_lq, align 4
  %35 = add i32 %20, 1
  %36 = tail call ptr @proto_tree_add_item(ptr noundef %31, i32 noundef %34, ptr noundef %0, i32 noundef %20, i32 noundef 1, i32 noundef 0)
  %37 = load i32, ptr @hf_olsrorg_nlq, align 4
  %38 = tail call ptr @proto_tree_add_item(ptr noundef %31, i32 noundef %37, ptr noundef %0, i32 noundef %35, i32 noundef 1, i32 noundef 0)
  %39 = add i32 %20, 4
  %40 = icmp slt i32 %39, %4
  br i1 %40, label %10, label %.thread68

.thread68:                                        ; preds = %19, %16, %5, %.thread
  ret i32 %4
}